; Function Attrs: mustprogress nofree norecurse nosync nounwind willreturn memory(argmem: read) uwtable
define noundef zeroext i1 @_ZNK14debug_module_t14hart_availableEj(ptr noundef nonnull readonly align 8 captures(none) dereferenceable(1372) %0, i32 noundef %1) local_unnamed_addr #14 align 2 {
  %3 = icmp ult i32 %1, 2
  br i1 %3, label %4, label %10

4:                                                ; preds = %2
  %5 = zext nneg i32 %1 to i64
  %6 = getelementptr inbounds nuw i8, ptr %0, i64 1360
  %7 = getelementptr inbounds nuw [2 x i8], ptr %6, i64 0, i64 %5
  %8 = load i8, ptr %7, align 1, !tbaa !10, !range !14, !noundef !15
  %9 = trunc nuw i8 %8 to i1
  br label %10

10:                                               ; preds = %2, %4
  %.0 = phi i1 [ %9, %4 ], [ true, %2 ]
  ret i1 %.0
}